target datalayout = "e-m:e-p270:32:32-p271:32:32-p272:64:64-i64:64-i128:128-f80:128-n8:16:32:64-S128"
target triple = "x86_64-pc-linux-gnu"

%struct.RBignum = type { %struct.RBasic, %union.anon }
%struct.RBasic = type { i64, i64 }
%union.anon = type { %struct.anon, [8 x i8] }
%struct.anon = type { i64, ptr }

; Function Attrs: inlinehint nounwind sspstrong uwtable
define internal i32 @nlz_int32(i32 noundef %0) #2 {
  %2 = alloca i32, align 4
  store i32 %0, ptr %2, align 4, !tbaa !19
  %3 = load i32, ptr %2, align 4, !tbaa !19
  %4 = icmp ne i32 %3, 0
  br i1 %4, label %5, label %8

5:                                                ; preds = %1
  %6 = load i32, ptr %2, align 4, !tbaa !19
  %7 = call i32 @llvm.ctlz.i32(i32 %6, i1 true)
  br label %9

8:                                                ; preds = %1
  br label %9

9:                                                ; preds = %8, %5
  %10 = phi i32 [ %7, %5 ], [ 32, %8 ]
  ret i32 %10
}

; Function Attrs: inlinehint nounwind sspstrong willreturn memory(read) uwtable
define internal i64 @RB_FL_TEST_RAW(i64 noundef %0, i64 noundef %1) #8 {
  %3 = alloca i64, align 8
  %4 = alloca i64, align 8
  store i64 %0, ptr %3, align 8, !tbaa !7
  store i64 %1, ptr %4, align 8, !tbaa !7
  %5 = load i64, ptr %3, align 8, !tbaa !7
  %6 = inttoptr i64 %5 to ptr
  %7 = getelementptr inbounds nuw %struct.RBasic, ptr %6, i32 0, i32 0
  %8 = load i64, ptr %7, align 8, !tbaa !17
  %9 = load i64, ptr %4, align 8, !tbaa !7
  %10 = and i64 %8, %9
  ret i64 %10
}

; Function Attrs: inlinehint nounwind sspstrong uwtable
define internal i32 @nlz_int(i32 noundef %0) #2 {
  %2 = alloca i32, align 4
  store i32 %0, ptr %2, align 4, !tbaa !19
  %3 = load i32, ptr %2, align 4, !tbaa !19
  %4 = call i32 @nlz_int32(i32 noundef %3)
  ret i32 %4
}

; Function Attrs: inlinehint nounwind sspstrong uwtable
define internal zeroext i1 @BIGNUM_EMBED_P(i64 noundef %0) #2 {
  %2 = alloca i64, align 8
  store i64 %0, ptr %2, align 8, !tbaa !7
  %3 = load i64, ptr %2, align 8, !tbaa !7
  %4 = call i64 @RB_FL_TEST_RAW(i64 noundef %3, i64 noundef 16384) #26
  %5 = icmp ne i64 %4, 0
  ret i1 %5
}

; Function Attrs: inlinehint nounwind sspstrong willreturn memory(none) uwtable
define internal i64 @rbimpl_fix2long_by_idiv(i64 noundef %0) #6 {
  %2 = alloca i64, align 8
  %3 = alloca i64, align 8
  %4 = alloca i64, align 8
  %5 = alloca i64, align 8
  store i64 %0, ptr %2, align 8, !tbaa !7
  call void @llvm.lifetime.start.p0(i64 8, ptr %3) #24
  %6 = load i64, ptr %2, align 8, !tbaa !7
  %7 = sub i64 %6, 1
  store i64 %7, ptr %3, align 8, !tbaa !7
  call void @llvm.lifetime.start.p0(i64 8, ptr %4) #24
  %8 = load i64, ptr %3, align 8, !tbaa !7
  %9 = sdiv i64 %8, 2
  store i64 %9, ptr %4, align 8, !tbaa !7
  call void @llvm.lifetime.start.p0(i64 8, ptr %5) #24
  %10 = load i64, ptr %4, align 8, !tbaa !7
  store i64 %10, ptr %5, align 8, !tbaa !7
  %11 = load i64, ptr %5, align 8, !tbaa !7
  call void @llvm.lifetime.end.p0(i64 8, ptr %5) #24
  call void @llvm.lifetime.end.p0(i64 8, ptr %4) #24
  call void @llvm.lifetime.end.p0(i64 8, ptr %3) #24
  ret i64 %11
}

; Function Attrs: inlinehint nounwind sspstrong willreturn memory(none) uwtable
define internal i64 @rbimpl_fix2long_by_shift(i64 noundef %0) #6 {
  %2 = alloca i64, align 8
  %3 = alloca i64, align 8
  %4 = alloca i64, align 8
  %5 = alloca i64, align 8
  store i64 %0, ptr %2, align 8, !tbaa !7
  call void @llvm.lifetime.start.p0(i64 8, ptr %3) #24
  %6 = load i64, ptr %2, align 8, !tbaa !7
  store i64 %6, ptr %3, align 8, !tbaa !7
  call void @llvm.lifetime.start.p0(i64 8, ptr %4) #24
  %7 = load i64, ptr %3, align 8, !tbaa !7
  %8 = ashr i64 %7, 1
  store i64 %8, ptr %4, align 8, !tbaa !7
  call void @llvm.lifetime.start.p0(i64 8, ptr %5) #24
  %9 = load i64, ptr %4, align 8, !tbaa !7
  store i64 %9, ptr %5, align 8, !tbaa !7
  %10 = load i64, ptr %5, align 8, !tbaa !7
  call void @llvm.lifetime.end.p0(i64 8, ptr %5) #24
  call void @llvm.lifetime.end.p0(i64 8, ptr %4) #24
  call void @llvm.lifetime.end.p0(i64 8, ptr %3) #24
  ret i64 %10
}

; Function Attrs: inlinehint nounwind sspstrong willreturn memory(none) uwtable
define internal zeroext i1 @rbimpl_right_shift_is_arithmetic_p() #6 {
  ret i1 true
}

; Function Attrs: nounwind sspstrong uwtable
define internal i32 @nlz(i32 noundef %0) #0 {
  %2 = alloca i32, align 4
  store i32 %0, ptr %2, align 4, !tbaa !19
  %3 = load i32, ptr %2, align 4, !tbaa !19
  %4 = call i32 @nlz_int(i32 noundef %3)
  %5 = sub i32 %4, 0
  ret i32 %5
}

; Function Attrs: inlinehint nounwind sspstrong uwtable
define internal i64 @BIGNUM_LEN(i64 noundef %0) #2 {
  %2 = alloca i64, align 8
  %3 = alloca i64, align 8
  %4 = alloca i64, align 8
  store i64 %0, ptr %3, align 8, !tbaa !7
  %5 = load i64, ptr %3, align 8, !tbaa !7
  %6 = call zeroext i1 @BIGNUM_EMBED_P(i64 noundef %5)
  br i1 %6, label %13, label %7

7:                                                ; preds = %1
  %8 = load i64, ptr %3, align 8, !tbaa !7
  %9 = inttoptr i64 %8 to ptr
  %10 = getelementptr inbounds nuw %struct.RBignum, ptr %9, i32 0, i32 1
  %11 = getelementptr inbounds nuw %struct.anon, ptr %10, i32 0, i32 0
  %12 = load i64, ptr %11, align 8, !tbaa !16
  store i64 %12, ptr %2, align 8
  br label %23

13:                                               ; preds = %1
  call void @llvm.lifetime.start.p0(i64 8, ptr %4) #24
  %14 = load i64, ptr %3, align 8, !tbaa !7
  %15 = inttoptr i64 %14 to ptr
  %16 = getelementptr inbounds nuw %struct.RBasic, ptr %15, i32 0, i32 0
  %17 = load i64, ptr %16, align 8, !tbaa !17
  store i64 %17, ptr %4, align 8, !tbaa !7
  %18 = load i64, ptr %4, align 8, !tbaa !7
  %19 = and i64 %18, 229376
  store i64 %19, ptr %4, align 8, !tbaa !7
  %20 = load i64, ptr %4, align 8, !tbaa !7
  %21 = lshr i64 %20, 15
  store i64 %21, ptr %4, align 8, !tbaa !7
  %22 = load i64, ptr %4, align 8, !tbaa !7
  store i64 %22, ptr %2, align 8
  call void @llvm.lifetime.end.p0(i64 8, ptr %4) #24
  br label %23

23:                                               ; preds = %13, %7
  %24 = load i64, ptr %2, align 8
  ret i64 %24
}

; Function Attrs: inlinehint nounwind sspstrong uwtable
define internal ptr @BIGNUM_DIGITS(i64 noundef %0) #2 {
  %2 = alloca ptr, align 8
  %3 = alloca i64, align 8
  store i64 %0, ptr %3, align 8, !tbaa !7
  %4 = load i64, ptr %3, align 8, !tbaa !7
  %5 = call zeroext i1 @BIGNUM_EMBED_P(i64 noundef %4)
  br i1 %5, label %6, label %11

6:                                                ; preds = %1
  %7 = load i64, ptr %3, align 8, !tbaa !7
  %8 = inttoptr i64 %7 to ptr
  %9 = getelementptr inbounds nuw %struct.RBignum, ptr %8, i32 0, i32 1
  %10 = getelementptr inbounds [6 x i32], ptr %9, i64 0, i64 0
  store ptr %10, ptr %2, align 8
  br label %17

11:                                               ; preds = %1
  %12 = load i64, ptr %3, align 8, !tbaa !7
  %13 = inttoptr i64 %12 to ptr
  %14 = getelementptr inbounds nuw %struct.RBignum, ptr %13, i32 0, i32 1
  %15 = getelementptr inbounds nuw %struct.anon, ptr %14, i32 0, i32 1
  %16 = load ptr, ptr %15, align 8, !tbaa !16
  store ptr %16, ptr %2, align 8
  br label %17

17:                                               ; preds = %11, %6
  %18 = load ptr, ptr %2, align 8
  ret ptr %18
}

; Function Attrs: inlinehint nounwind sspstrong willreturn memory(none) uwtable
define internal i64 @rb_fix2long(i64 noundef %0) #6 {
  %2 = alloca i64, align 8
  %3 = alloca i64, align 8
  store i64 %0, ptr %3, align 8, !tbaa !7
  %4 = call zeroext i1 @rbimpl_right_shift_is_arithmetic_p() #30
  br i1 %4, label %5, label %8

5:                                                ; preds = %1
  %6 = load i64, ptr %3, align 8, !tbaa !7
  %7 = call i64 @rbimpl_fix2long_by_shift(i64 noundef %6) #30
  store i64 %7, ptr %2, align 8
  br label %11

8:                                                ; preds = %1
  %9 = load i64, ptr %3, align 8, !tbaa !7
  %10 = call i64 @rbimpl_fix2long_by_idiv(i64 noundef %9) #30
  store i64 %10, ptr %2, align 8
  br label %11

11:                                               ; preds = %8, %5
  %12 = load i64, ptr %2, align 8
  ret i64 %12
}

; Function Attrs: inlinehint nounwind sspstrong willreturn memory(none) uwtable
define internal zeroext i1 @RB_FIXNUM_P(i64 noundef %0) #6 {
  %2 = alloca i64, align 8
  store i64 %0, ptr %2, align 8, !tbaa !7
  %3 = load i64, ptr %2, align 8, !tbaa !7
  %4 = and i64 %3, 1
  %5 = icmp ne i64 %4, 0
  ret i1 %5
}

; Function Attrs: nounwind sspstrong uwtable
define dso_local i64 @rb_absint_size(i64 noundef %0, ptr noundef %1) #0 {
  %3 = alloca i64, align 8
  %4 = alloca i64, align 8
  %5 = alloca ptr, align 8
  %6 = alloca ptr, align 8
  %7 = alloca ptr, align 8
  %8 = alloca [2 x i32], align 4
  %9 = alloca i32, align 4
  %10 = alloca i64, align 8
  %11 = alloca i32, align 4
  %12 = alloca i32, align 4
  store i64 %0, ptr %4, align 8, !tbaa !7
  store ptr %1, ptr %5, align 8, !tbaa !24
  call void @llvm.lifetime.start.p0(i64 8, ptr %6) #24
  call void @llvm.lifetime.start.p0(i64 8, ptr %7) #24
  call void @llvm.lifetime.start.p0(i64 8, ptr %8) #24
  call void @llvm.lifetime.start.p0(i64 4, ptr %9) #24
  %13 = load i64, ptr %4, align 8, !tbaa !7
  %14 = call i64 @rb_to_int(i64 noundef %13)
  store i64 %14, ptr %4, align 8, !tbaa !7
  %15 = load i64, ptr %4, align 8, !tbaa !7
  %16 = call zeroext i1 @RB_FIXNUM_P(i64 noundef %15) #30
  br i1 %16, label %17, label %45

17:                                               ; preds = %2
  call void @llvm.lifetime.start.p0(i64 8, ptr %10) #24
  %18 = load i64, ptr %4, align 8, !tbaa !7
  %19 = call i64 @rb_fix2long(i64 noundef %18) #30
  store i64 %19, ptr %10, align 8, !tbaa !7
  %20 = load i64, ptr %10, align 8, !tbaa !7
  %21 = icmp slt i64 %20, 0
  br i1 %21, label %22, label %25

22:                                               ; preds = %17
  %23 = load i64, ptr %10, align 8, !tbaa !7
  %24 = sub i64 0, %23
  store i64 %24, ptr %10, align 8, !tbaa !7
  br label %25

25:                                               ; preds = %22, %17
  call void @llvm.lifetime.start.p0(i64 4, ptr %11) #24
  store i32 0, ptr %11, align 4, !tbaa !19
  br label %26

26:                                               ; preds = %38, %25
  %27 = load i32, ptr %11, align 4, !tbaa !19
  %28 = icmp slt i32 %27, 2
  br i1 %28, label %29, label %41

29:                                               ; preds = %26
  %30 = load i64, ptr %10, align 8, !tbaa !7
  %31 = and i64 %30, 4294967295
  %32 = trunc i64 %31 to i32
  %33 = load i32, ptr %11, align 4, !tbaa !19
  %34 = sext i32 %33 to i64
  %35 = getelementptr [2 x i32], ptr %8, i64 0, i64 %34
  store i32 %32, ptr %35, align 4, !tbaa !19
  %36 = load i64, ptr %10, align 8, !tbaa !7
  %37 = ashr i64 %36, 32
  store i64 %37, ptr %10, align 8, !tbaa !7
  br label %38

38:                                               ; preds = %29
  %39 = load i32, ptr %11, align 4, !tbaa !19
  %40 = add i32 %39, 1
  store i32 %40, ptr %11, align 4, !tbaa !19
  br label %26, !llvm.loop !78

41:                                               ; preds = %26
  call void @llvm.lifetime.end.p0(i64 4, ptr %11) #24
  %42 = getelementptr inbounds [2 x i32], ptr %8, i64 0, i64 0
  store ptr %42, ptr %6, align 8, !tbaa !24
  %43 = getelementptr inbounds [2 x i32], ptr %8, i64 0, i64 0
  %44 = getelementptr i32, ptr %43, i64 2
  store ptr %44, ptr %7, align 8, !tbaa !24
  call void @llvm.lifetime.end.p0(i64 8, ptr %10) #24
  br label %52

45:                                               ; preds = %2
  %46 = load i64, ptr %4, align 8, !tbaa !7
  %47 = call ptr @BIGNUM_DIGITS(i64 noundef %46)
  store ptr %47, ptr %6, align 8, !tbaa !24
  %48 = load ptr, ptr %6, align 8, !tbaa !24
  %49 = load i64, ptr %4, align 8, !tbaa !7
  %50 = call i64 @BIGNUM_LEN(i64 noundef %49)
  %51 = getelementptr i32, ptr %48, i64 %50
  store ptr %51, ptr %7, align 8, !tbaa !24
  br label %52

52:                                               ; preds = %45, %41
  br label %53

53:                                               ; preds = %64, %52
  %54 = load ptr, ptr %6, align 8, !tbaa !24
  %55 = load ptr, ptr %7, align 8, !tbaa !24
  %56 = icmp ult ptr %54, %55
  br i1 %56, label %57, label %62

57:                                               ; preds = %53
  %58 = load ptr, ptr %7, align 8, !tbaa !24
  %59 = getelementptr i32, ptr %58, i64 -1
  %60 = load i32, ptr %59, align 4, !tbaa !19
  %61 = icmp eq i32 %60, 0
  br label %62

62:                                               ; preds = %57, %53
  %63 = phi i1 [ false, %53 ], [ %61, %57 ]
  br i1 %63, label %64, label %67

64:                                               ; preds = %62
  %65 = load ptr, ptr %7, align 8, !tbaa !24
  %66 = getelementptr i32, ptr %65, i32 -1
  store ptr %66, ptr %7, align 8, !tbaa !24
  br label %53, !llvm.loop !79

67:                                               ; preds = %62
  %68 = load ptr, ptr %6, align 8, !tbaa !24
  %69 = load ptr, ptr %7, align 8, !tbaa !24
  %70 = icmp eq ptr %68, %69
  br i1 %70, label %71, label %77

71:                                               ; preds = %67
  %72 = load ptr, ptr %5, align 8, !tbaa !24
  %73 = icmp ne ptr %72, null
  br i1 %73, label %74, label %76

74:                                               ; preds = %71
  %75 = load ptr, ptr %5, align 8, !tbaa !24
  store i32 0, ptr %75, align 4, !tbaa !19
  br label %76

76:                                               ; preds = %74, %71
  store i64 0, ptr %3, align 8
  store i32 1, ptr %12, align 4
  br label %100

77:                                               ; preds = %67
  %78 = load ptr, ptr %7, align 8, !tbaa !24
  %79 = getelementptr i32, ptr %78, i64 -1
  %80 = load i32, ptr %79, align 4, !tbaa !19
  %81 = call i32 @nlz(i32 noundef %80)
  store i32 %81, ptr %9, align 4, !tbaa !19
  %82 = load ptr, ptr %5, align 8, !tbaa !24
  %83 = icmp ne ptr %82, null
  br i1 %83, label %84, label %88

84:                                               ; preds = %77
  %85 = load i32, ptr %9, align 4, !tbaa !19
  %86 = srem i32 %85, 8
  %87 = load ptr, ptr %5, align 8, !tbaa !24
  store i32 %86, ptr %87, align 4, !tbaa !19
  br label %88

88:                                               ; preds = %84, %77
  %89 = load ptr, ptr %7, align 8, !tbaa !24
  %90 = load ptr, ptr %6, align 8, !tbaa !24
  %91 = ptrtoint ptr %89 to i64
  %92 = ptrtoint ptr %90 to i64
  %93 = sub i64 %91, %92
  %94 = sdiv exact i64 %93, 4
  %95 = mul i64 %94, 4
  %96 = load i32, ptr %9, align 4, !tbaa !19
  %97 = sdiv i32 %96, 8
  %98 = sext i32 %97 to i64
  %99 = sub i64 %95, %98
  store i64 %99, ptr %3, align 8
  store i32 1, ptr %12, align 4
  br label %100

100:                                              ; preds = %88, %76
  call void @llvm.lifetime.end.p0(i64 4, ptr %9) #24
  call void @llvm.lifetime.end.p0(i64 8, ptr %8) #24
  call void @llvm.lifetime.end.p0(i64 8, ptr %7) #24
  call void @llvm.lifetime.end.p0(i64 8, ptr %6) #24
  %101 = load i64, ptr %3, align 8
  ret i64 %101
}