; Function Attrs: nounwind sspstrong uwtable
define dso_local i64 @rb_absint_size(i64 noundef %0, ptr noundef writeonly captures(address_is_null) %1) local_unnamed_addr #0 {
  %3 = alloca [2 x i32], align 4
  call void @llvm.lifetime.start.p0(i64 8, ptr nonnull %3) #27
  %4 = tail call i64 @rb_to_int(i64 noundef %0) #27
  %5 = and i64 %4, 1
  %.not43 = icmp eq i64 %5, 0
  %indvars.iv.sroa.gep49 = getelementptr inbounds nuw i8, ptr %3, i64 4
  br i1 %.not43, label %14, label %6

6:                                                ; preds = %2
  %7 = ashr i64 %4, 1
  %spec.select = tail call i64 @llvm.abs.i64(i64 %7, i1 true)
  br label %8

8:                                                ; preds = %6, %8
  %9 = phi i1 [ true, %6 ], [ false, %8 ]
  %indvars.iv.sroa.phi = phi ptr [ %3, %6 ], [ %indvars.iv.sroa.gep49, %8 ]
  %.146 = phi i64 [ %spec.select, %6 ], [ %11, %8 ]
  %10 = trunc i64 %.146 to i32
  store i32 %10, ptr %indvars.iv.sroa.phi, align 4, !tbaa !18
  %11 = lshr i64 %.146, 32
  br i1 %9, label %8, label %12, !llvm.loop !78

12:                                               ; preds = %8
  %13 = getelementptr inbounds nuw i8, ptr %3, i64 8
  br label %28

14:                                               ; preds = %2
  %15 = inttoptr i64 %4 to ptr
  %16 = load i64, ptr %15, align 8, !tbaa !11
  %17 = and i64 %16, 16384
  %.not.i = icmp eq i64 %17, 0
  br i1 %.not.i, label %18, label %23

18:                                               ; preds = %14
  %19 = getelementptr inbounds nuw i8, ptr %15, i64 24
  %20 = load ptr, ptr %19, align 8, !tbaa !13
  %21 = getelementptr inbounds nuw i8, ptr %15, i64 16
  %22 = load i64, ptr %21, align 8, !tbaa !13
  br label %BIGNUM_LEN.exit

23:                                               ; preds = %14
  %24 = getelementptr inbounds nuw i8, ptr %15, i64 16
  %25 = lshr i64 %16, 15
  %26 = and i64 %25, 7
  br label %BIGNUM_LEN.exit

BIGNUM_LEN.exit:                                  ; preds = %18, %23
  %.0.i41 = phi ptr [ %24, %23 ], [ %20, %18 ]
  %.0.i39 = phi i64 [ %26, %23 ], [ %22, %18 ]
  %27 = getelementptr i32, ptr %.0.i41, i64 %.0.i39
  br label %28

28:                                               ; preds = %BIGNUM_LEN.exit, %12
  %.032 = phi ptr [ %3, %12 ], [ %.0.i41, %BIGNUM_LEN.exit ]
  %.030 = phi ptr [ %13, %12 ], [ %27, %BIGNUM_LEN.exit ]
  br label %29

29:                                               ; preds = %31, %28
  %.131 = phi ptr [ %.030, %28 ], [ %32, %31 ]
  %30 = icmp ult ptr %.032, %.131
  br i1 %30, label %31, label %.critedge

31:                                               ; preds = %29
  %32 = getelementptr i8, ptr %.131, i64 -4
  %33 = load i32, ptr %32, align 4, !tbaa !18
  %34 = icmp eq i32 %33, 0
  br i1 %34, label %29, label %.critedge, !llvm.loop !79

.critedge:                                        ; preds = %29, %31
  %35 = icmp eq ptr %.032, %.131
  br i1 %35, label %36, label %38

36:                                               ; preds = %.critedge
  %.not37 = icmp eq ptr %1, null
  br i1 %.not37, label %51, label %37

37:                                               ; preds = %36
  store i32 0, ptr %1, align 4, !tbaa !18
  br label %51

38:                                               ; preds = %.critedge
  %39 = getelementptr i8, ptr %.131, i64 -4
  %40 = load i32, ptr %39, align 4, !tbaa !18
  %41 = call range(i32 0, 33) i32 @llvm.ctlz.i32(i32 %40, i1 false)
  %.not = icmp eq ptr %1, null
  br i1 %.not, label %44, label %42

42:                                               ; preds = %38
  %43 = and i32 %41, 7
  store i32 %43, ptr %1, align 4, !tbaa !18
  br label %44

44:                                               ; preds = %42, %38
  %45 = ptrtoint ptr %.131 to i64
  %46 = ptrtoint ptr %.032 to i64
  %47 = lshr i32 %41, 3
  %48 = zext nneg i32 %47 to i64
  %49 = add i64 %46, %48
  %50 = sub i64 %45, %49
  br label %51

51:                                               ; preds = %36, %37, %44
  %.029 = phi i64 [ %50, %44 ], [ 0, %37 ], [ 0, %36 ]
  call void @llvm.lifetime.end.p0(i64 8, ptr nonnull %3) #27
  ret i64 %.029
}